; Function Attrs: nounwind uwtable
define internal void @writetup_cluster(ptr noundef readonly captures(none) %0, ptr noundef %1, ptr noundef readonly captures(none) %2) #0 {
  %4 = alloca i32, align 4
  %5 = load ptr, ptr %2, align 8
  call void @llvm.lifetime.start.p0(i64 4, ptr nonnull %4) #12
  %6 = load i32, ptr %5, align 8
  %7 = add i32 %6, 10
  store i32 %7, ptr %4, align 4
  call void @LogicalTapeWrite(ptr noundef %1, ptr noundef nonnull %4, i64 noundef 4) #12
  %8 = getelementptr inbounds nuw i8, ptr %5, i64 4
  call void @LogicalTapeWrite(ptr noundef %1, ptr noundef nonnull %8, i64 noundef 6) #12
  %9 = getelementptr inbounds nuw i8, ptr %5, i64 16
  %10 = load ptr, ptr %9, align 8
  %11 = load i32, ptr %5, align 8
  %12 = zext i32 %11 to i64
  call void @LogicalTapeWrite(ptr noundef %1, ptr noundef %10, i64 noundef %12) #12
  %13 = getelementptr inbounds nuw i8, ptr %0, i64 96
  %14 = load i32, ptr %13, align 8
  %15 = and i32 %14, 1
  %.not = icmp eq i32 %15, 0
  br i1 %.not, label %17, label %16

16:                                               ; preds = %3
  call void @LogicalTapeWrite(ptr noundef %1, ptr noundef nonnull %4, i64 noundef 4) #12
  br label %17

17:                                               ; preds = %16, %3
  call void @llvm.lifetime.end.p0(i64 4, ptr nonnull %4) #12
  ret void
}